target datalayout = "e-m:e-p270:32:32-p271:32:32-p272:64:64-i64:64-i128:128-f80:128-n8:16:32:64-S128"
target triple = "x86_64-pc-linux-gnu"

@g_ascii_table = external constant ptr, align 8

; Function Attrs: nounwind null_pointer_is_valid sspstrong uwtable
define ptr @ascii_strup_inplace(ptr noundef %0) #8 {
  %2 = alloca ptr, align 8
  %3 = alloca ptr, align 8
  store ptr %0, ptr %2, align 8
  call void @llvm.lifetime.start.p0(i64 8, ptr %3) #15
  %4 = load ptr, ptr %2, align 8
  store ptr %4, ptr %3, align 8
  br label %5

5:                                                ; preds = %33, %1
  %6 = load ptr, ptr %3, align 8
  %7 = load i8, ptr %6, align 1
  %8 = icmp ne i8 %7, 0
  br i1 %8, label %9, label %36

9:                                                ; preds = %5
  %10 = load ptr, ptr @g_ascii_table, align 8
  %11 = load ptr, ptr %3, align 8
  %12 = load i8, ptr %11, align 1
  %13 = zext i8 %12 to i64
  %14 = getelementptr i16, ptr %10, i64 %13
  %15 = load i16, ptr %14, align 2
  %16 = zext i16 %15 to i32
  %17 = and i32 %16, 32
  %18 = icmp ne i32 %17, 0
  br i1 %18, label %19, label %25

19:                                               ; preds = %9
  %20 = load ptr, ptr %3, align 8
  %21 = load i8, ptr %20, align 1
  %22 = sext i8 %21 to i32
  %23 = sub i32 %22, 97
  %24 = add i32 %23, 65
  br label %29

25:                                               ; preds = %9
  %26 = load ptr, ptr %3, align 8
  %27 = load i8, ptr %26, align 1
  %28 = sext i8 %27 to i32
  br label %29

29:                                               ; preds = %25, %19
  %30 = phi i32 [ %24, %19 ], [ %28, %25 ]
  %31 = trunc i32 %30 to i8
  %32 = load ptr, ptr %3, align 8
  store i8 %31, ptr %32, align 1
  br label %33

33:                                               ; preds = %29
  %34 = load ptr, ptr %3, align 8
  %35 = getelementptr i8, ptr %34, i32 1
  store ptr %35, ptr %3, align 8
  br label %5, !llvm.loop !18

36:                                               ; preds = %5
  %37 = load ptr, ptr %2, align 8
  call void @llvm.lifetime.end.p0(i64 8, ptr %3) #15
  ret ptr %37
}